; Function Attrs: mustprogress nofree norecurse nosync nounwind willreturn memory(read, inaccessiblemem: none) uwtable
define range(i32 -1, 2) i32 @Abc_FrameCheckPoConst(ptr noundef readonly captures(none) %0, i32 noundef %1) local_unnamed_addr #0 {
  %3 = getelementptr inbounds nuw i8, ptr %0, i64 48
  %4 = load ptr, ptr %3, align 8, !tbaa !96
  %5 = icmp eq ptr %4, null
  br i1 %5, label %34, label %6

6:                                                ; preds = %2
  %.val14 = load i32, ptr %4, align 8, !tbaa !119
  %7 = icmp ne i32 %.val14, 3
  %8 = icmp slt i32 %1, 0
  %or.cond = or i1 %8, %7
  br i1 %or.cond, label %34, label %9

9:                                                ; preds = %6
  %10 = getelementptr i8, ptr %4, i64 48
  %.val = load ptr, ptr %10, align 8, !tbaa !112
  %11 = getelementptr i8, ptr %.val, i64 4
  %.val.val = load i32, ptr %11, align 4, !tbaa !25
  %.not11 = icmp slt i32 %1, %.val.val
  br i1 %.not11, label %12, label %34

12:                                               ; preds = %9
  %13 = getelementptr i8, ptr %.val, i64 8
  %.val15.val = load ptr, ptr %13, align 8, !tbaa !68
  %14 = zext nneg i32 %1 to i64
  %15 = getelementptr inbounds nuw ptr, ptr %.val15.val, i64 %14
  %16 = load ptr, ptr %15, align 8, !tbaa !69
  %.val16 = load ptr, ptr %16, align 8, !tbaa !120
  %17 = getelementptr i8, ptr %16, i64 32
  %.val17 = load ptr, ptr %17, align 8, !tbaa !123
  %18 = getelementptr i8, ptr %.val16, i64 32
  %.val16.val = load ptr, ptr %18, align 8, !tbaa !124
  %.val17.val = load i32, ptr %.val17, align 4, !tbaa !113
  %19 = getelementptr i8, ptr %.val16.val, i64 8
  %.val16.val.val = load ptr, ptr %19, align 8, !tbaa !68
  %20 = sext i32 %.val17.val to i64
  %21 = getelementptr inbounds ptr, ptr %.val16.val.val, i64 %20
  %22 = load ptr, ptr %21, align 8, !tbaa !69
  %23 = ptrtoint ptr %22 to i64
  %24 = and i64 %23, -2
  %25 = inttoptr i64 %24 to ptr
  %26 = getelementptr inbounds nuw i8, ptr %25, i64 20
  %27 = load i32, ptr %26, align 4
  %28 = and i32 %27, 15
  %.not = icmp eq i32 %28, 1
  br i1 %.not, label %29, label %34

29:                                               ; preds = %12
  %30 = getelementptr i8, ptr %16, i64 20
  %.val18 = load i32, ptr %30, align 4
  %31 = lshr i32 %.val18, 10
  %32 = and i32 %31, 1
  %33 = xor i32 %32, 1
  br label %34

34:                                               ; preds = %12, %9, %6, %2, %29
  %.0 = phi i32 [ %33, %29 ], [ -1, %2 ], [ -1, %6 ], [ -1, %9 ], [ -1, %12 ]
  ret i32 %.0
}